target datalayout = "e-m:e-p270:32:32-p271:32:32-p272:64:64-i64:64-i128:128-f80:128-n8:16:32:64-S128"
target triple = "x86_64-pc-linux-gnu"

@rb_coverage_supported.rbimpl_id = internal global i64 0, align 8
@.str.13 = private unnamed_addr constant [6 x i8] c"lines\00", align 1
@rb_coverage_supported.rbimpl_id.14 = internal global i64 0, align 8
@.str.15 = private unnamed_addr constant [14 x i8] c"oneshot_lines\00", align 1
@rb_coverage_supported.rbimpl_id.16 = internal global i64 0, align 8
@.str.17 = private unnamed_addr constant [9 x i8] c"branches\00", align 1
@rb_coverage_supported.rbimpl_id.18 = internal global i64 0, align 8
@.str.19 = private unnamed_addr constant [8 x i8] c"methods\00", align 1
@rb_coverage_supported.rbimpl_id.20 = internal global i64 0, align 8
@.str.21 = private unnamed_addr constant [5 x i8] c"eval\00", align 1

; Function Attrs: inlinehint nounwind sspstrong willreturn memory(read) uwtable
define internal i64 @rb_intern_const(ptr noundef nonnull %0) #5 {
  %2 = alloca ptr, align 8
  %3 = alloca i64, align 8
  store ptr %0, ptr %2, align 8, !tbaa !15
  call void @llvm.lifetime.start.p0(i64 8, ptr %3) #16
  %4 = load ptr, ptr %2, align 8, !tbaa !15
  %5 = call i64 @strlen(ptr noundef %4) #20
  store i64 %5, ptr %3, align 8, !tbaa !6
  %6 = load ptr, ptr %2, align 8, !tbaa !15
  %7 = load i64, ptr %3, align 8, !tbaa !6
  %8 = call i64 @rb_intern2(ptr noundef %6, i64 noundef %7)
  call void @llvm.lifetime.end.p0(i64 8, ptr %3) #16
  ret i64 %8
}

; Function Attrs: inlinehint nounwind sspstrong memory(argmem: readwrite, inaccessiblemem: readwrite) uwtable
define internal i64 @rbimpl_intern_const(ptr noundef nonnull %0, ptr noundef nonnull %1) #4 {
  %3 = alloca ptr, align 8
  %4 = alloca ptr, align 8
  store ptr %0, ptr %3, align 8, !tbaa !12
  store ptr %1, ptr %4, align 8, !tbaa !15
  br label %5

5:                                                ; preds = %10, %2
  %6 = load ptr, ptr %3, align 8, !tbaa !12
  %7 = load i64, ptr %6, align 8, !tbaa !6
  %8 = icmp ne i64 %7, 0
  %9 = xor i1 %8, true
  br i1 %9, label %10, label %14

10:                                               ; preds = %5
  %11 = load ptr, ptr %4, align 8, !tbaa !15
  %12 = call i64 @rb_intern_const(ptr noundef %11) #20
  %13 = load ptr, ptr %3, align 8, !tbaa !12
  store i64 %12, ptr %13, align 8, !tbaa !6
  br label %5, !llvm.loop !17

14:                                               ; preds = %5
  %15 = load ptr, ptr %3, align 8, !tbaa !12
  %16 = load i64, ptr %15, align 8, !tbaa !6
  ret i64 %16
}

; Function Attrs: nounwind sspstrong uwtable
define internal i64 @rb_coverage_supported(i64 noundef %0, i64 noundef %1) #0 {
  %3 = alloca i64, align 8
  %4 = alloca i64, align 8
  %5 = alloca i64, align 8
  %6 = alloca i64, align 8
  %7 = alloca i64, align 8
  %8 = alloca i64, align 8
  %9 = alloca i64, align 8
  %10 = alloca i64, align 8
  store i64 %0, ptr %3, align 8, !tbaa !6
  store i64 %1, ptr %4, align 8, !tbaa !6
  call void @llvm.lifetime.start.p0(i64 8, ptr %5) #16
  %11 = load i64, ptr %4, align 8, !tbaa !6
  %12 = call i64 @rb_sym2id(i64 noundef %11)
  store i64 %12, ptr %5, align 8, !tbaa !6
  %13 = load i64, ptr %5, align 8, !tbaa !6
  %14 = call i64 @rbimpl_intern_const(ptr noundef @rb_coverage_supported.rbimpl_id, ptr noundef @.str.13) #17
  store i64 %14, ptr %6, align 8, !tbaa !6
  %15 = load i64, ptr %6, align 8, !tbaa !6
  %16 = icmp eq i64 %13, %15
  br i1 %16, label %37, label %17

17:                                               ; preds = %2
  %18 = load i64, ptr %5, align 8, !tbaa !6
  %19 = call i64 @rbimpl_intern_const(ptr noundef @rb_coverage_supported.rbimpl_id.14, ptr noundef @.str.15) #17
  store i64 %19, ptr %7, align 8, !tbaa !6
  %20 = load i64, ptr %7, align 8, !tbaa !6
  %21 = icmp eq i64 %18, %20
  br i1 %21, label %37, label %22

22:                                               ; preds = %17
  %23 = load i64, ptr %5, align 8, !tbaa !6
  %24 = call i64 @rbimpl_intern_const(ptr noundef @rb_coverage_supported.rbimpl_id.16, ptr noundef @.str.17) #17
  store i64 %24, ptr %8, align 8, !tbaa !6
  %25 = load i64, ptr %8, align 8, !tbaa !6
  %26 = icmp eq i64 %23, %25
  br i1 %26, label %37, label %27

27:                                               ; preds = %22
  %28 = load i64, ptr %5, align 8, !tbaa !6
  %29 = call i64 @rbimpl_intern_const(ptr noundef @rb_coverage_supported.rbimpl_id.18, ptr noundef @.str.19) #17
  store i64 %29, ptr %9, align 8, !tbaa !6
  %30 = load i64, ptr %9, align 8, !tbaa !6
  %31 = icmp eq i64 %28, %30
  br i1 %31, label %37, label %32

32:                                               ; preds = %27
  %33 = load i64, ptr %5, align 8, !tbaa !6
  %34 = call i64 @rbimpl_intern_const(ptr noundef @rb_coverage_supported.rbimpl_id.20, ptr noundef @.str.21) #17
  store i64 %34, ptr %10, align 8, !tbaa !6
  %35 = load i64, ptr %10, align 8, !tbaa !6
  %36 = icmp eq i64 %33, %35
  br label %37

37:                                               ; preds = %32, %27, %22, %17, %2
  %38 = phi i1 [ true, %27 ], [ true, %22 ], [ true, %17 ], [ true, %2 ], [ %36, %32 ]
  %39 = select i1 %38, i64 20, i64 0
  call void @llvm.lifetime.end.p0(i64 8, ptr %5) #16
  ret i64 %39
}