; Function Attrs: nounwind sspstrong uwtable
define internal range(i64 0, 21) i64 @rb_coverage_supported(i64 %0, i64 noundef %1) #0 {
  %3 = tail call i64 @rb_sym2id(i64 noundef %1) #9
  %.pr.i = load i64, ptr @rb_coverage_supported.rbimpl_id, align 8, !tbaa !10
  %.not4.i = icmp eq i64 %.pr.i, 0
  br i1 %.not4.i, label %.lr.ph.i, label %rbimpl_intern_const.exit

.lr.ph.i:                                         ; preds = %2, %.lr.ph.i
  %4 = tail call i64 @rb_intern2(ptr noundef nonnull @.str.13, i64 noundef 5) #9
  store i64 %4, ptr @rb_coverage_supported.rbimpl_id, align 8, !tbaa !10
  %.not.i = icmp eq i64 %4, 0
  br i1 %.not.i, label %.lr.ph.i, label %rbimpl_intern_const.exit, !llvm.loop !12

rbimpl_intern_const.exit:                         ; preds = %.lr.ph.i, %2
  %.lcssa.i = phi i64 [ %.pr.i, %2 ], [ %4, %.lr.ph.i ]
  %5 = icmp eq i64 %3, %.lcssa.i
  br i1 %5, label %19, label %6

6:                                                ; preds = %rbimpl_intern_const.exit
  %.pr.i11 = load i64, ptr @rb_coverage_supported.rbimpl_id.14, align 8, !tbaa !10
  %.not4.i12 = icmp eq i64 %.pr.i11, 0
  br i1 %.not4.i12, label %.lr.ph.i14, label %rbimpl_intern_const.exit16

.lr.ph.i14:                                       ; preds = %6, %.lr.ph.i14
  %7 = tail call i64 @rb_intern2(ptr noundef nonnull @.str.15, i64 noundef 13) #9
  store i64 %7, ptr @rb_coverage_supported.rbimpl_id.14, align 8, !tbaa !10
  %.not.i15 = icmp eq i64 %7, 0
  br i1 %.not.i15, label %.lr.ph.i14, label %rbimpl_intern_const.exit16, !llvm.loop !12

rbimpl_intern_const.exit16:                       ; preds = %.lr.ph.i14, %6
  %.lcssa.i13 = phi i64 [ %.pr.i11, %6 ], [ %7, %.lr.ph.i14 ]
  %8 = icmp eq i64 %3, %.lcssa.i13
  br i1 %8, label %19, label %9

9:                                                ; preds = %rbimpl_intern_const.exit16
  %.pr.i17 = load i64, ptr @rb_coverage_supported.rbimpl_id.16, align 8, !tbaa !10
  %.not4.i18 = icmp eq i64 %.pr.i17, 0
  br i1 %.not4.i18, label %.lr.ph.i20, label %rbimpl_intern_const.exit22

.lr.ph.i20:                                       ; preds = %9, %.lr.ph.i20
  %10 = tail call i64 @rb_intern2(ptr noundef nonnull @.str.17, i64 noundef 8) #9
  store i64 %10, ptr @rb_coverage_supported.rbimpl_id.16, align 8, !tbaa !10
  %.not.i21 = icmp eq i64 %10, 0
  br i1 %.not.i21, label %.lr.ph.i20, label %rbimpl_intern_const.exit22, !llvm.loop !12

rbimpl_intern_const.exit22:                       ; preds = %.lr.ph.i20, %9
  %.lcssa.i19 = phi i64 [ %.pr.i17, %9 ], [ %10, %.lr.ph.i20 ]
  %11 = icmp eq i64 %3, %.lcssa.i19
  br i1 %11, label %19, label %12

12:                                               ; preds = %rbimpl_intern_const.exit22
  %.pr.i23 = load i64, ptr @rb_coverage_supported.rbimpl_id.18, align 8, !tbaa !10
  %.not4.i24 = icmp eq i64 %.pr.i23, 0
  br i1 %.not4.i24, label %.lr.ph.i26, label %rbimpl_intern_const.exit28

.lr.ph.i26:                                       ; preds = %12, %.lr.ph.i26
  %13 = tail call i64 @rb_intern2(ptr noundef nonnull @.str.19, i64 noundef 7) #9
  store i64 %13, ptr @rb_coverage_supported.rbimpl_id.18, align 8, !tbaa !10
  %.not.i27 = icmp eq i64 %13, 0
  br i1 %.not.i27, label %.lr.ph.i26, label %rbimpl_intern_const.exit28, !llvm.loop !12

rbimpl_intern_const.exit28:                       ; preds = %.lr.ph.i26, %12
  %.lcssa.i25 = phi i64 [ %.pr.i23, %12 ], [ %13, %.lr.ph.i26 ]
  %14 = icmp eq i64 %3, %.lcssa.i25
  br i1 %14, label %19, label %15

15:                                               ; preds = %rbimpl_intern_const.exit28
  %.pr.i29 = load i64, ptr @rb_coverage_supported.rbimpl_id.20, align 8, !tbaa !10
  %.not4.i30 = icmp eq i64 %.pr.i29, 0
  br i1 %.not4.i30, label %.lr.ph.i32, label %rbimpl_intern_const.exit34

.lr.ph.i32:                                       ; preds = %15, %.lr.ph.i32
  %16 = tail call i64 @rb_intern2(ptr noundef nonnull @.str.21, i64 noundef 4) #9
  store i64 %16, ptr @rb_coverage_supported.rbimpl_id.20, align 8, !tbaa !10
  %.not.i33 = icmp eq i64 %16, 0
  br i1 %.not.i33, label %.lr.ph.i32, label %rbimpl_intern_const.exit34, !llvm.loop !12

rbimpl_intern_const.exit34:                       ; preds = %.lr.ph.i32, %15
  %.lcssa.i31 = phi i64 [ %.pr.i29, %15 ], [ %16, %.lr.ph.i32 ]
  %17 = icmp eq i64 %3, %.lcssa.i31
  %18 = select i1 %17, i64 20, i64 0
  br label %19

19:                                               ; preds = %rbimpl_intern_const.exit34, %rbimpl_intern_const.exit28, %rbimpl_intern_const.exit22, %rbimpl_intern_const.exit16, %rbimpl_intern_const.exit
  %20 = phi i64 [ 20, %rbimpl_intern_const.exit28 ], [ 20, %rbimpl_intern_const.exit22 ], [ 20, %rbimpl_intern_const.exit16 ], [ 20, %rbimpl_intern_const.exit ], [ %18, %rbimpl_intern_const.exit34 ]
  ret i64 %20
}